target datalayout = "e-m:e-p270:32:32-p271:32:32-p272:64:64-i64:64-i128:128-f80:128-n8:16:32:64-S128"
target triple = "x86_64-pc-linux-gnu"

%struct.Vec_Bit_t_ = type { i32, i32, ptr }

; Function Attrs: inlinehint nounwind uwtable
define internal void @Vec_BitGrow(ptr noundef %0, i32 noundef %1) #3 {
  %3 = alloca ptr, align 8
  %4 = alloca i32, align 4
  store ptr %0, ptr %3, align 8, !tbaa !96
  store i32 %1, ptr %4, align 4, !tbaa !3
  %5 = load ptr, ptr %3, align 8, !tbaa !96
  %6 = getelementptr inbounds nuw %struct.Vec_Bit_t_, ptr %5, i32 0, i32 0
  %7 = load i32, ptr %6, align 8, !tbaa !110
  %8 = load i32, ptr %4, align 4, !tbaa !3
  %9 = icmp sge i32 %7, %8
  br i1 %9, label %10, label %11

10:                                               ; preds = %2
  br label %44

11:                                               ; preds = %2
  %12 = load i32, ptr %4, align 4, !tbaa !3
  %13 = ashr i32 %12, 5
  %14 = load i32, ptr %4, align 4, !tbaa !3
  %15 = and i32 %14, 31
  %16 = icmp sgt i32 %15, 0
  %17 = zext i1 %16 to i32
  %18 = add nsw i32 %13, %17
  store i32 %18, ptr %4, align 4, !tbaa !3
  %19 = load ptr, ptr %3, align 8, !tbaa !96
  %20 = getelementptr inbounds nuw %struct.Vec_Bit_t_, ptr %19, i32 0, i32 2
  %21 = load ptr, ptr %20, align 8, !tbaa !98
  %22 = icmp ne ptr %21, null
  br i1 %22, label %23, label %31

23:                                               ; preds = %11
  %24 = load ptr, ptr %3, align 8, !tbaa !96
  %25 = getelementptr inbounds nuw %struct.Vec_Bit_t_, ptr %24, i32 0, i32 2
  %26 = load ptr, ptr %25, align 8, !tbaa !98
  %27 = load i32, ptr %4, align 4, !tbaa !3
  %28 = sext i32 %27 to i64
  %29 = mul i64 4, %28
  %30 = call ptr @realloc(ptr noundef %26, i64 noundef %29) #15
  br label %36

31:                                               ; preds = %11
  %32 = load i32, ptr %4, align 4, !tbaa !3
  %33 = sext i32 %32 to i64
  %34 = mul i64 4, %33
  %35 = call noalias ptr @malloc(i64 noundef %34) #13
  br label %36

36:                                               ; preds = %31, %23
  %37 = phi ptr [ %30, %23 ], [ %35, %31 ]
  %38 = load ptr, ptr %3, align 8, !tbaa !96
  %39 = getelementptr inbounds nuw %struct.Vec_Bit_t_, ptr %38, i32 0, i32 2
  store ptr %37, ptr %39, align 8, !tbaa !98
  %40 = load i32, ptr %4, align 4, !tbaa !3
  %41 = mul nsw i32 %40, 32
  %42 = load ptr, ptr %3, align 8, !tbaa !96
  %43 = getelementptr inbounds nuw %struct.Vec_Bit_t_, ptr %42, i32 0, i32 0
  store i32 %41, ptr %43, align 8, !tbaa !110
  br label %44

44:                                               ; preds = %36, %10
  ret void
}

; Function Attrs: inlinehint nounwind uwtable
define internal void @Vec_BitWriteEntry(ptr noundef %0, i32 noundef %1, i32 noundef %2) #3 {
  %4 = alloca ptr, align 8
  %5 = alloca i32, align 4
  %6 = alloca i32, align 4
  store ptr %0, ptr %4, align 8, !tbaa !96
  store i32 %1, ptr %5, align 4, !tbaa !3
  store i32 %2, ptr %6, align 4, !tbaa !3
  %7 = load i32, ptr %6, align 4, !tbaa !3
  %8 = icmp eq i32 %7, 1
  br i1 %8, label %9, label %22

9:                                                ; preds = %3
  %10 = load i32, ptr %5, align 4, !tbaa !3
  %11 = and i32 %10, 31
  %12 = shl i32 1, %11
  %13 = load ptr, ptr %4, align 8, !tbaa !96
  %14 = getelementptr inbounds nuw %struct.Vec_Bit_t_, ptr %13, i32 0, i32 2
  %15 = load ptr, ptr %14, align 8, !tbaa !98
  %16 = load i32, ptr %5, align 4, !tbaa !3
  %17 = ashr i32 %16, 5
  %18 = sext i32 %17 to i64
  %19 = getelementptr inbounds i32, ptr %15, i64 %18
  %20 = load i32, ptr %19, align 4, !tbaa !3
  %21 = or i32 %20, %12
  store i32 %21, ptr %19, align 4, !tbaa !3
  br label %41

22:                                               ; preds = %3
  %23 = load i32, ptr %6, align 4, !tbaa !3
  %24 = icmp eq i32 %23, 0
  br i1 %24, label %25, label %39

25:                                               ; preds = %22
  %26 = load i32, ptr %5, align 4, !tbaa !3
  %27 = and i32 %26, 31
  %28 = shl i32 1, %27
  %29 = xor i32 %28, -1
  %30 = load ptr, ptr %4, align 8, !tbaa !96
  %31 = getelementptr inbounds nuw %struct.Vec_Bit_t_, ptr %30, i32 0, i32 2
  %32 = load ptr, ptr %31, align 8, !tbaa !98
  %33 = load i32, ptr %5, align 4, !tbaa !3
  %34 = ashr i32 %33, 5
  %35 = sext i32 %34 to i64
  %36 = getelementptr inbounds i32, ptr %32, i64 %35
  %37 = load i32, ptr %36, align 4, !tbaa !3
  %38 = and i32 %37, %29
  store i32 %38, ptr %36, align 4, !tbaa !3
  br label %40

39:                                               ; preds = %22
  br label %40

40:                                               ; preds = %39, %25
  br label %41

41:                                               ; preds = %40, %9
  ret void
}

; Function Attrs: inlinehint nounwind uwtable
define internal void @Vec_BitFillExtra(ptr noundef %0, i32 noundef %1, i32 noundef %2) #3 {
  %4 = alloca ptr, align 8
  %5 = alloca i32, align 4
  %6 = alloca i32, align 4
  %7 = alloca i32, align 4
  %8 = alloca i32, align 4
  %9 = alloca i32, align 4
  %10 = alloca i32, align 4
  %11 = alloca i32, align 4
  %12 = alloca i32, align 4
  %13 = alloca i32, align 4
  store ptr %0, ptr %4, align 8, !tbaa !96
  store i32 %1, ptr %5, align 4, !tbaa !3
  store i32 %2, ptr %6, align 4, !tbaa !3
  call void @llvm.lifetime.start.p0(i64 4, ptr %7) #12
  %14 = load i32, ptr %5, align 4, !tbaa !3
  %15 = load ptr, ptr %4, align 8, !tbaa !96
  %16 = getelementptr inbounds nuw %struct.Vec_Bit_t_, ptr %15, i32 0, i32 1
  %17 = load i32, ptr %16, align 4, !tbaa !101
  %18 = icmp sle i32 %14, %17
  br i1 %18, label %19, label %20

19:                                               ; preds = %3
  store i32 1, ptr %8, align 4
  br label %212

20:                                               ; preds = %3
  %21 = load i32, ptr %5, align 4, !tbaa !3
  %22 = load ptr, ptr %4, align 8, !tbaa !96
  %23 = getelementptr inbounds nuw %struct.Vec_Bit_t_, ptr %22, i32 0, i32 0
  %24 = load i32, ptr %23, align 8, !tbaa !110
  %25 = mul nsw i32 2, %24
  %26 = icmp sgt i32 %21, %25
  br i1 %26, label %27, label %30

27:                                               ; preds = %20
  %28 = load ptr, ptr %4, align 8, !tbaa !96
  %29 = load i32, ptr %5, align 4, !tbaa !3
  call void @Vec_BitGrow(ptr noundef %28, i32 noundef %29)
  br label %43

30:                                               ; preds = %20
  %31 = load i32, ptr %5, align 4, !tbaa !3
  %32 = load ptr, ptr %4, align 8, !tbaa !96
  %33 = getelementptr inbounds nuw %struct.Vec_Bit_t_, ptr %32, i32 0, i32 0
  %34 = load i32, ptr %33, align 8, !tbaa !110
  %35 = icmp sgt i32 %31, %34
  br i1 %35, label %36, label %42

36:                                               ; preds = %30
  %37 = load ptr, ptr %4, align 8, !tbaa !96
  %38 = load ptr, ptr %4, align 8, !tbaa !96
  %39 = getelementptr inbounds nuw %struct.Vec_Bit_t_, ptr %38, i32 0, i32 0
  %40 = load i32, ptr %39, align 8, !tbaa !110
  %41 = mul nsw i32 2, %40
  call void @Vec_BitGrow(ptr noundef %37, i32 noundef %41)
  br label %42

42:                                               ; preds = %36, %30
  br label %43

43:                                               ; preds = %42, %27
  %44 = load ptr, ptr %4, align 8, !tbaa !96
  %45 = getelementptr inbounds nuw %struct.Vec_Bit_t_, ptr %44, i32 0, i32 1
  %46 = load i32, ptr %45, align 4, !tbaa !101
  %47 = ashr i32 %46, 5
  %48 = load i32, ptr %5, align 4, !tbaa !3
  %49 = ashr i32 %48, 5
  %50 = icmp eq i32 %47, %49
  br i1 %50, label %51, label %94

51:                                               ; preds = %43
  call void @llvm.lifetime.start.p0(i64 4, ptr %9) #12
  %52 = load i32, ptr %5, align 4, !tbaa !3
  %53 = load ptr, ptr %4, align 8, !tbaa !96
  %54 = getelementptr inbounds nuw %struct.Vec_Bit_t_, ptr %53, i32 0, i32 1
  %55 = load i32, ptr %54, align 4, !tbaa !101
  %56 = sub nsw i32 %52, %55
  %57 = shl i32 -1, %56
  %58 = xor i32 %57, -1
  %59 = load ptr, ptr %4, align 8, !tbaa !96
  %60 = getelementptr inbounds nuw %struct.Vec_Bit_t_, ptr %59, i32 0, i32 1
  %61 = load i32, ptr %60, align 4, !tbaa !101
  %62 = shl i32 %58, %61
  store i32 %62, ptr %9, align 4, !tbaa !3
  %63 = load i32, ptr %6, align 4, !tbaa !3
  %64 = icmp eq i32 %63, 1
  br i1 %64, label %65, label %76

65:                                               ; preds = %51
  %66 = load i32, ptr %9, align 4, !tbaa !3
  %67 = load ptr, ptr %4, align 8, !tbaa !96
  %68 = getelementptr inbounds nuw %struct.Vec_Bit_t_, ptr %67, i32 0, i32 2
  %69 = load ptr, ptr %68, align 8, !tbaa !98
  %70 = load i32, ptr %5, align 4, !tbaa !3
  %71 = ashr i32 %70, 5
  %72 = sext i32 %71 to i64
  %73 = getelementptr inbounds i32, ptr %69, i64 %72
  %74 = load i32, ptr %73, align 4, !tbaa !3
  %75 = or i32 %74, %66
  store i32 %75, ptr %73, align 4, !tbaa !3
  br label %93

76:                                               ; preds = %51
  %77 = load i32, ptr %6, align 4, !tbaa !3
  %78 = icmp eq i32 %77, 0
  br i1 %78, label %79, label %91

79:                                               ; preds = %76
  %80 = load i32, ptr %9, align 4, !tbaa !3
  %81 = xor i32 %80, -1
  %82 = load ptr, ptr %4, align 8, !tbaa !96
  %83 = getelementptr inbounds nuw %struct.Vec_Bit_t_, ptr %82, i32 0, i32 2
  %84 = load ptr, ptr %83, align 8, !tbaa !98
  %85 = load i32, ptr %5, align 4, !tbaa !3
  %86 = ashr i32 %85, 5
  %87 = sext i32 %86 to i64
  %88 = getelementptr inbounds i32, ptr %84, i64 %87
  %89 = load i32, ptr %88, align 4, !tbaa !3
  %90 = and i32 %89, %81
  store i32 %90, ptr %88, align 4, !tbaa !3
  br label %92

91:                                               ; preds = %76
  br label %92

92:                                               ; preds = %91, %79
  br label %93

93:                                               ; preds = %92, %65
  call void @llvm.lifetime.end.p0(i64 4, ptr %9) #12
  br label %208

94:                                               ; preds = %43
  call void @llvm.lifetime.start.p0(i64 4, ptr %10) #12
  %95 = load ptr, ptr %4, align 8, !tbaa !96
  %96 = getelementptr inbounds nuw %struct.Vec_Bit_t_, ptr %95, i32 0, i32 1
  %97 = load i32, ptr %96, align 4, !tbaa !101
  %98 = and i32 %97, 31
  %99 = icmp ne i32 %98, 0
  br i1 %99, label %100, label %106

100:                                              ; preds = %94
  %101 = load ptr, ptr %4, align 8, !tbaa !96
  %102 = getelementptr inbounds nuw %struct.Vec_Bit_t_, ptr %101, i32 0, i32 1
  %103 = load i32, ptr %102, align 4, !tbaa !101
  %104 = and i32 %103, 31
  %105 = shl i32 -1, %104
  br label %107

106:                                              ; preds = %94
  br label %107

107:                                              ; preds = %106, %100
  %108 = phi i32 [ %105, %100 ], [ 0, %106 ]
  store i32 %108, ptr %10, align 4, !tbaa !3
  call void @llvm.lifetime.start.p0(i64 4, ptr %11) #12
  %109 = load i32, ptr %5, align 4, !tbaa !3
  %110 = and i32 %109, 31
  %111 = icmp ne i32 %110, 0
  br i1 %111, label %112, label %117

112:                                              ; preds = %107
  %113 = load i32, ptr %5, align 4, !tbaa !3
  %114 = and i32 %113, 31
  %115 = shl i32 -1, %114
  %116 = xor i32 %115, -1
  br label %118

117:                                              ; preds = %107
  br label %118

118:                                              ; preds = %117, %112
  %119 = phi i32 [ %116, %112 ], [ 0, %117 ]
  store i32 %119, ptr %11, align 4, !tbaa !3
  call void @llvm.lifetime.start.p0(i64 4, ptr %12) #12
  %120 = load ptr, ptr %4, align 8, !tbaa !96
  %121 = getelementptr inbounds nuw %struct.Vec_Bit_t_, ptr %120, i32 0, i32 1
  %122 = load i32, ptr %121, align 4, !tbaa !101
  %123 = ashr i32 %122, 5
  store i32 %123, ptr %12, align 4, !tbaa !3
  call void @llvm.lifetime.start.p0(i64 4, ptr %13) #12
  %124 = load i32, ptr %5, align 4, !tbaa !3
  %125 = ashr i32 %124, 5
  store i32 %125, ptr %13, align 4, !tbaa !3
  %126 = load i32, ptr %6, align 4, !tbaa !3
  %127 = icmp eq i32 %126, 1
  br i1 %127, label %128, label %164

128:                                              ; preds = %118
  %129 = load i32, ptr %10, align 4, !tbaa !3
  %130 = load ptr, ptr %4, align 8, !tbaa !96
  %131 = getelementptr inbounds nuw %struct.Vec_Bit_t_, ptr %130, i32 0, i32 2
  %132 = load ptr, ptr %131, align 8, !tbaa !98
  %133 = load i32, ptr %12, align 4, !tbaa !3
  %134 = sext i32 %133 to i64
  %135 = getelementptr inbounds i32, ptr %132, i64 %134
  %136 = load i32, ptr %135, align 4, !tbaa !3
  %137 = or i32 %136, %129
  store i32 %137, ptr %135, align 4, !tbaa !3
  %138 = load i32, ptr %11, align 4, !tbaa !3
  %139 = load ptr, ptr %4, align 8, !tbaa !96
  %140 = getelementptr inbounds nuw %struct.Vec_Bit_t_, ptr %139, i32 0, i32 2
  %141 = load ptr, ptr %140, align 8, !tbaa !98
  %142 = load i32, ptr %13, align 4, !tbaa !3
  %143 = sext i32 %142 to i64
  %144 = getelementptr inbounds i32, ptr %141, i64 %143
  %145 = load i32, ptr %144, align 4, !tbaa !3
  %146 = or i32 %145, %138
  store i32 %146, ptr %144, align 4, !tbaa !3
  %147 = load i32, ptr %12, align 4, !tbaa !3
  %148 = add nsw i32 %147, 1
  store i32 %148, ptr %7, align 4, !tbaa !3
  br label %149

149:                                              ; preds = %160, %128
  %150 = load i32, ptr %7, align 4, !tbaa !3
  %151 = load i32, ptr %13, align 4, !tbaa !3
  %152 = icmp slt i32 %150, %151
  br i1 %152, label %153, label %163

153:                                              ; preds = %149
  %154 = load ptr, ptr %4, align 8, !tbaa !96
  %155 = getelementptr inbounds nuw %struct.Vec_Bit_t_, ptr %154, i32 0, i32 2
  %156 = load ptr, ptr %155, align 8, !tbaa !98
  %157 = load i32, ptr %7, align 4, !tbaa !3
  %158 = sext i32 %157 to i64
  %159 = getelementptr inbounds i32, ptr %156, i64 %158
  store i32 -1, ptr %159, align 4, !tbaa !3
  br label %160

160:                                              ; preds = %153
  %161 = load i32, ptr %7, align 4, !tbaa !3
  %162 = add nsw i32 %161, 1
  store i32 %162, ptr %7, align 4, !tbaa !3
  br label %149, !llvm.loop !111

163:                                              ; preds = %149
  br label %207

164:                                              ; preds = %118
  %165 = load i32, ptr %6, align 4, !tbaa !3
  %166 = icmp eq i32 %165, 0
  br i1 %166, label %167, label %205

167:                                              ; preds = %164
  %168 = load i32, ptr %10, align 4, !tbaa !3
  %169 = xor i32 %168, -1
  %170 = load ptr, ptr %4, align 8, !tbaa !96
  %171 = getelementptr inbounds nuw %struct.Vec_Bit_t_, ptr %170, i32 0, i32 2
  %172 = load ptr, ptr %171, align 8, !tbaa !98
  %173 = load i32, ptr %12, align 4, !tbaa !3
  %174 = sext i32 %173 to i64
  %175 = getelementptr inbounds i32, ptr %172, i64 %174
  %176 = load i32, ptr %175, align 4, !tbaa !3
  %177 = and i32 %176, %169
  store i32 %177, ptr %175, align 4, !tbaa !3
  %178 = load i32, ptr %11, align 4, !tbaa !3
  %179 = xor i32 %178, -1
  %180 = load ptr, ptr %4, align 8, !tbaa !96
  %181 = getelementptr inbounds nuw %struct.Vec_Bit_t_, ptr %180, i32 0, i32 2
  %182 = load ptr, ptr %181, align 8, !tbaa !98
  %183 = load i32, ptr %13, align 4, !tbaa !3
  %184 = sext i32 %183 to i64
  %185 = getelementptr inbounds i32, ptr %182, i64 %184
  %186 = load i32, ptr %185, align 4, !tbaa !3
  %187 = and i32 %186, %179
  store i32 %187, ptr %185, align 4, !tbaa !3
  %188 = load i32, ptr %12, align 4, !tbaa !3
  %189 = add nsw i32 %188, 1
  store i32 %189, ptr %7, align 4, !tbaa !3
  br label %190

190:                                              ; preds = %201, %167
  %191 = load i32, ptr %7, align 4, !tbaa !3
  %192 = load i32, ptr %13, align 4, !tbaa !3
  %193 = icmp slt i32 %191, %192
  br i1 %193, label %194, label %204

194:                                              ; preds = %190
  %195 = load ptr, ptr %4, align 8, !tbaa !96
  %196 = getelementptr inbounds nuw %struct.Vec_Bit_t_, ptr %195, i32 0, i32 2
  %197 = load ptr, ptr %196, align 8, !tbaa !98
  %198 = load i32, ptr %7, align 4, !tbaa !3
  %199 = sext i32 %198 to i64
  %200 = getelementptr inbounds i32, ptr %197, i64 %199
  store i32 0, ptr %200, align 4, !tbaa !3
  br label %201

201:                                              ; preds = %194
  %202 = load i32, ptr %7, align 4, !tbaa !3
  %203 = add nsw i32 %202, 1
  store i32 %203, ptr %7, align 4, !tbaa !3
  br label %190, !llvm.loop !112

204:                                              ; preds = %190
  br label %206

205:                                              ; preds = %164
  br label %206

206:                                              ; preds = %205, %204
  br label %207

207:                                              ; preds = %206, %163
  call void @llvm.lifetime.end.p0(i64 4, ptr %13) #12
  call void @llvm.lifetime.end.p0(i64 4, ptr %12) #12
  call void @llvm.lifetime.end.p0(i64 4, ptr %11) #12
  call void @llvm.lifetime.end.p0(i64 4, ptr %10) #12
  br label %208

208:                                              ; preds = %207, %93
  %209 = load i32, ptr %5, align 4, !tbaa !3
  %210 = load ptr, ptr %4, align 8, !tbaa !96
  %211 = getelementptr inbounds nuw %struct.Vec_Bit_t_, ptr %210, i32 0, i32 1
  store i32 %209, ptr %211, align 4, !tbaa !101
  store i32 0, ptr %8, align 4
  br label %212

212:                                              ; preds = %208, %19
  call void @llvm.lifetime.end.p0(i64 4, ptr %7) #12
  %213 = load i32, ptr %8, align 4
  switch i32 %213, label %215 [
    i32 0, label %214
    i32 1, label %214
  ]

214:                                              ; preds = %212, %212
  ret void

215:                                              ; preds = %212
  unreachable
}

; Function Attrs: inlinehint nounwind uwtable
define internal void @Vec_BitSetEntry(ptr noundef %0, i32 noundef %1, i32 noundef %2) #3 {
  %4 = alloca ptr, align 8
  %5 = alloca i32, align 4
  %6 = alloca i32, align 4
  store ptr %0, ptr %4, align 8, !tbaa !96
  store i32 %1, ptr %5, align 4, !tbaa !3
  store i32 %2, ptr %6, align 4, !tbaa !3
  %7 = load ptr, ptr %4, align 8, !tbaa !96
  %8 = load i32, ptr %5, align 4, !tbaa !3
  %9 = add nsw i32 %8, 1
  call void @Vec_BitFillExtra(ptr noundef %7, i32 noundef %9, i32 noundef 0)
  %10 = load ptr, ptr %4, align 8, !tbaa !96
  %11 = load i32, ptr %5, align 4, !tbaa !3
  %12 = load i32, ptr %6, align 4, !tbaa !3
  call void @Vec_BitWriteEntry(ptr noundef %10, i32 noundef %11, i32 noundef %12)
  ret void
}