; Function Attrs: inlinehint mustprogress nounwind willreturn uwtable
define internal fastcc void @Vec_BitSetEntry(ptr noundef captures(none) %0, i32 noundef %1) unnamed_addr #6 {
  %3 = add nsw i32 %1, 1
  %4 = getelementptr inbounds nuw i8, ptr %0, i64 4
  %5 = load i32, ptr %4, align 4, !tbaa !92
  %.not.i.not = icmp slt i32 %1, %5
  br i1 %.not.i.not, label %.Vec_BitFillExtra.exit_crit_edge, label %6

.Vec_BitFillExtra.exit_crit_edge:                 ; preds = %2
  %.phi.trans.insert = getelementptr i8, ptr %0, i64 8
  %.val.pre = load ptr, ptr %.phi.trans.insert, align 8, !tbaa !89
  br label %Vec_BitFillExtra.exit

6:                                                ; preds = %2
  %7 = load i32, ptr %0, align 8, !tbaa !93
  %8 = shl nsw i32 %7, 1
  %.not = icmp slt i32 %1, %8
  %.not.i.i.not = icmp sgt i32 %7, %1
  br i1 %.not, label %26, label %9

9:                                                ; preds = %6
  br i1 %.not.i.i.not, label %Vec_BitGrow.exit.i, label %10

10:                                               ; preds = %9
  %11 = ashr i32 %3, 5
  %12 = and i32 %3, 31
  %13 = icmp ne i32 %12, 0
  %14 = zext i1 %13 to i32
  %15 = add nsw i32 %11, %14
  %16 = getelementptr inbounds nuw i8, ptr %0, i64 8
  %17 = load ptr, ptr %16, align 8, !tbaa !89
  %.not11.i.i = icmp eq ptr %17, null
  %18 = sext i32 %15 to i64
  %19 = shl nsw i64 %18, 2
  br i1 %.not11.i.i, label %22, label %20

20:                                               ; preds = %10
  %21 = tail call ptr @realloc(ptr noundef nonnull %17, i64 noundef %19) #22
  br label %24

22:                                               ; preds = %10
  %23 = tail call noalias ptr @malloc(i64 noundef %19) #23
  br label %24

24:                                               ; preds = %22, %20
  %25 = phi ptr [ %21, %20 ], [ %23, %22 ]
  store ptr %25, ptr %16, align 8, !tbaa !89
  br label %Vec_BitGrow.exit.sink.split.i

26:                                               ; preds = %6
  br i1 %.not.i.i.not, label %Vec_BitGrow.exit.i, label %27

27:                                               ; preds = %26
  %28 = ashr i32 %7, 4
  %29 = and i32 %7, 15
  %30 = icmp ne i32 %29, 0
  %31 = zext i1 %30 to i32
  %32 = add nsw i32 %28, %31
  %33 = getelementptr inbounds nuw i8, ptr %0, i64 8
  %34 = load ptr, ptr %33, align 8, !tbaa !89
  %.not11.i65.i = icmp eq ptr %34, null
  %35 = sext i32 %32 to i64
  %36 = shl nsw i64 %35, 2
  br i1 %.not11.i65.i, label %39, label %37

37:                                               ; preds = %27
  %38 = tail call ptr @realloc(ptr noundef nonnull %34, i64 noundef %36) #22
  br label %41

39:                                               ; preds = %27
  %40 = tail call noalias ptr @malloc(i64 noundef %36) #23
  br label %41

41:                                               ; preds = %39, %37
  %42 = phi ptr [ %38, %37 ], [ %40, %39 ]
  store ptr %42, ptr %33, align 8, !tbaa !89
  br label %Vec_BitGrow.exit.sink.split.i

Vec_BitGrow.exit.sink.split.i:                    ; preds = %41, %24
  %.sink70.i = phi i32 [ %32, %41 ], [ %15, %24 ]
  %43 = shl nsw i32 %.sink70.i, 5
  store i32 %43, ptr %0, align 8, !tbaa !93
  %.pre = load i32, ptr %4, align 4, !tbaa !92
  br label %Vec_BitGrow.exit.i

Vec_BitGrow.exit.i:                               ; preds = %Vec_BitGrow.exit.sink.split.i, %26, %9
  %44 = phi i32 [ %.pre, %Vec_BitGrow.exit.sink.split.i ], [ %5, %26 ], [ %5, %9 ]
  %45 = ashr i32 %44, 5
  %46 = ashr i32 %3, 5
  %47 = icmp eq i32 %45, %46
  br i1 %47, label %48, label %60

48:                                               ; preds = %Vec_BitGrow.exit.i
  %49 = sub nsw i32 %3, %44
  %50 = shl nsw i32 -1, %49
  %51 = xor i32 %50, -1
  %52 = shl i32 %51, %44
  %53 = xor i32 %52, -1
  %54 = getelementptr inbounds nuw i8, ptr %0, i64 8
  %55 = load ptr, ptr %54, align 8, !tbaa !89
  %56 = sext i32 %46 to i64
  %57 = getelementptr inbounds i32, ptr %55, i64 %56
  %58 = load i32, ptr %57, align 4, !tbaa !17
  %59 = and i32 %58, %53
  store i32 %59, ptr %57, align 4, !tbaa !17
  br label %.loopexit.i

60:                                               ; preds = %Vec_BitGrow.exit.i
  %61 = and i32 %44, 31
  %.not63.i = icmp eq i32 %61, 0
  %62 = shl nsw i32 -1, %61
  %63 = xor i32 %62, -1
  %64 = select i1 %.not63.i, i32 -1, i32 %63
  %65 = and i32 %3, 31
  %66 = shl nsw i32 -1, %65
  %67 = getelementptr inbounds nuw i8, ptr %0, i64 8
  %68 = load ptr, ptr %67, align 8, !tbaa !89
  %69 = sext i32 %45 to i64
  %70 = getelementptr inbounds i32, ptr %68, i64 %69
  %71 = load i32, ptr %70, align 4, !tbaa !17
  %72 = and i32 %71, %64
  store i32 %72, ptr %70, align 4, !tbaa !17
  %73 = sext i32 %46 to i64
  %74 = getelementptr inbounds i32, ptr %68, i64 %73
  %75 = load i32, ptr %74, align 4, !tbaa !17
  %76 = and i32 %75, %66
  store i32 %76, ptr %74, align 4, !tbaa !17
  %.167.i = add nsw i32 %45, 1
  %77 = icmp slt i32 %.167.i, %46
  br i1 %77, label %.lr.ph.preheader.i, label %.loopexit.i

.lr.ph.preheader.i:                               ; preds = %60
  %78 = shl nsw i64 %69, 2
  %79 = getelementptr i8, ptr %68, i64 %78
  %scevgep.i = getelementptr i8, ptr %79, i64 4
  %80 = add nsw i32 %46, -2
  %81 = sub nsw i32 %80, %45
  %82 = zext i32 %81 to i64
  %83 = shl nuw nsw i64 %82, 2
  %84 = add nuw nsw i64 %83, 4
  tail call void @llvm.memset.p0.i64(ptr noundef nonnull align 4 dereferenceable(1) %scevgep.i, i8 0, i64 %84, i1 false), !tbaa !17
  br label %.loopexit.i

.loopexit.i:                                      ; preds = %.lr.ph.preheader.i, %60, %48
  %.val5 = phi ptr [ %68, %.lr.ph.preheader.i ], [ %68, %60 ], [ %55, %48 ]
  store i32 %3, ptr %4, align 4, !tbaa !92
  br label %Vec_BitFillExtra.exit

Vec_BitFillExtra.exit:                            ; preds = %.Vec_BitFillExtra.exit_crit_edge, %.loopexit.i
  %.val = phi ptr [ %.val.pre, %.Vec_BitFillExtra.exit_crit_edge ], [ %.val5, %.loopexit.i ]
  %85 = and i32 %1, 31
  %86 = shl nuw i32 1, %85
  %87 = ashr i32 %1, 5
  %88 = sext i32 %87 to i64
  %89 = getelementptr inbounds i32, ptr %.val, i64 %88
  %90 = load i32, ptr %89, align 4, !tbaa !17
  %91 = or i32 %90, %86
  store i32 %91, ptr %89, align 4, !tbaa !17
  ret void
}